; Function Attrs: mustprogress uwtable
define hidden noundef nonnull ptr @_ZN4cvc58internal4prop16SatSolverFactory18createCadicalCDCLTERNS0_3EnvERNS0_18StatisticsRegistryEPNS0_15ResourceManagerERKNSt7__cxx1112basic_stringIcSt11char_traitsIcESaIcEEE(ptr noundef nonnull align 8 dereferenceable(696) %0, ptr noundef nonnull align 8 dereferenceable(58) %1, ptr noundef %2, ptr noundef nonnull align 8 dereferenceable(32) %3) local_unnamed_addr #4 align 2 personality ptr @__gxx_personality_v0 {
  %5 = tail call noalias noundef nonnull dereferenceable(192) ptr @_Znwm(i64 noundef 192) #15
  invoke void @_ZN4cvc58internal4prop13CadicalSolverC1ERNS0_3EnvERNS0_18StatisticsRegistryERKNSt7__cxx1112basic_stringIcSt11char_traitsIcESaIcEEE(ptr noundef nonnull align 8 dereferenceable(192) %5, ptr noundef nonnull align 8 dereferenceable(696) %0, ptr noundef nonnull align 8 dereferenceable(58) %1, ptr noundef nonnull align 8 dereferenceable(32) %3)
          to label %6 unwind label %7

6:                                                ; preds = %4
  tail call void @_ZN4cvc58internal4prop13CadicalSolver16setResourceLimitEPNS0_15ResourceManagerE(ptr noundef nonnull align 8 dereferenceable(192) %5, ptr noundef %2)
  ret ptr %5

7:                                                ; preds = %4
  %8 = landingpad { ptr, i32 }
          cleanup
  tail call void @_ZdlPvm(ptr noundef nonnull %5, i64 noundef 192) #16
  resume { ptr, i32 } %8
}